; ModuleID = '38/1345.c'
source_filename = "38/1345.c"
target datalayout = "e-m:e-p270:32:32-p271:32:32-p272:64:64-i64:64-f80:128-n8:16:32:64-S128"
target triple = "x86_64-pc-linux-gnu"

@.str = private unnamed_addr constant [3 x i8] c"%d\00", align 1
@.str.1 = private unnamed_addr constant [4 x i8] c"%lf\00", align 1
@.str.2 = private unnamed_addr constant [7 x i8] c"%.5lf\0A\00", align 1

; Function Attrs: noinline nounwind uwtable
define dso_local double @aver(i32 %0, double* %1) #0 {
  %3 = alloca i32, align 4
  %4 = alloca double*, align 8
  %5 = alloca i32, align 4
  %6 = alloca double, align 8
  store i32 %0, i32* %3, align 4
  store double* %1, double** %4, align 8
  store double 0.000000e+00, double* %6, align 8
  store i32 0, i32* %5, align 4
  br label %7

7:                                                ; preds = %19, %2
  %8 = load i32, i32* %5, align 4
  %9 = load i32, i32* %3, align 4
  %10 = icmp slt i32 %8, %9
  br i1 %10, label %11, label %22

11:                                               ; preds = %7
  %12 = load double*, double** %4, align 8
  %13 = load i32, i32* %5, align 4
  %14 = sext i32 %13 to i64
  %15 = getelementptr inbounds double, double* %12, i64 %14
  %16 = load double, double* %15, align 8
  %17 = load double, double* %6, align 8
  %18 = fadd double %17, %16
  store double %18, double* %6, align 8
  br label %19

19:                                               ; preds = %11
  %20 = load i32, i32* %5, align 4
  %21 = add nsw i32 %20, 1
  store i32 %21, i32* %5, align 4
  br label %7

22:                                               ; preds = %7
  %23 = load double, double* %6, align 8
  %24 = load i32, i32* %3, align 4
  %25 = sitofp i32 %24 to double
  %26 = fdiv double %23, %25
  ret double %26
}

; Function Attrs: noinline nounwind uwtable
define dso_local double @s(i32 %0, double* %1) #0 {
  %3 = alloca i32, align 4
  %4 = alloca double*, align 8
  %5 = alloca i32, align 4
  %6 = alloca double, align 8
  %7 = alloca double, align 8
  %8 = alloca double, align 8
  store i32 %0, i32* %3, align 4
  store double* %1, double** %4, align 8
  %9 = load i32, i32* %3, align 4
  %10 = load double*, double** %4, align 8
  %11 = call double @aver(i32 %9, double* %10)
  store double %11, double* %6, align 8
  store double 0.000000e+00, double* %7, align 8
  store i32 0, i32* %5, align 4
  br label %12

12:                                               ; preds = %27, %2
  %13 = load i32, i32* %5, align 4
  %14 = load i32, i32* %3, align 4
  %15 = icmp slt i32 %13, %14
  br i1 %15, label %16, label %30

16:                                               ; preds = %12
  %17 = load double*, double** %4, align 8
  %18 = load i32, i32* %5, align 4
  %19 = sext i32 %18 to i64
  %20 = getelementptr inbounds double, double* %17, i64 %19
  %21 = load double, double* %20, align 8
  %22 = load double, double* %6, align 8
  %23 = fsub double %21, %22
  %24 = call double @pow(double %23, double 2.000000e+00) #3
  %25 = load double, double* %7, align 8
  %26 = fadd double %25, %24
  store double %26, double* %7, align 8
  br label %27

27:                                               ; preds = %16
  %28 = load i32, i32* %5, align 4
  %29 = add nsw i32 %28, 1
  store i32 %29, i32* %5, align 4
  br label %12

30:                                               ; preds = %12
  %31 = load double, double* %7, align 8
  %32 = load i32, i32* %3, align 4
  %33 = sitofp i32 %32 to double
  %34 = fdiv double %31, %33
  %35 = call double @sqrt(double %34) #3
  store double %35, double* %8, align 8
  %36 = load double, double* %8, align 8
  ret double %36
}

; Function Attrs: nounwind
declare dso_local double @pow(double, double) #1

; Function Attrs: nounwind
declare dso_local double @sqrt(double) #1

; Function Attrs: noinline nounwind uwtable
define dso_local void @main() #0 {
  %1 = alloca i32, align 4
  %2 = alloca i32, align 4
  %3 = alloca i32, align 4
  %4 = alloca i32, align 4
  %5 = alloca [100 x double], align 16
  %6 = alloca double, align 8
  %7 = call i32 (i8*, ...) @__isoc99_scanf(i8* getelementptr inbounds ([3 x i8], [3 x i8]* @.str, i64 0, i64 0), i32* %1)
  store i32 0, i32* %3, align 4
  br label %8

8:                                                ; preds = %32, %0
  %9 = load i32, i32* %3, align 4
  %10 = load i32, i32* %1, align 4
  %11 = icmp slt i32 %9, %10
  br i1 %11, label %12, label %35

12:                                               ; preds = %8
  %13 = call i32 (i8*, ...) @__isoc99_scanf(i8* getelementptr inbounds ([3 x i8], [3 x i8]* @.str, i64 0, i64 0), i32* %2)
  store i32 0, i32* %4, align 4
  br label %14

14:                                               ; preds = %23, %12
  %15 = load i32, i32* %4, align 4
  %16 = load i32, i32* %2, align 4
  %17 = icmp slt i32 %15, %16
  br i1 %17, label %18, label %26

18:                                               ; preds = %14
  %19 = load i32, i32* %4, align 4
  %20 = sext i32 %19 to i64
  %21 = getelementptr inbounds [100 x double], [100 x double]* %5, i64 0, i64 %20
  %22 = call i32 (i8*, ...) @__isoc99_scanf(i8* getelementptr inbounds ([4 x i8], [4 x i8]* @.str.1, i64 0, i64 0), double* %21)
  br label %23

23:                                               ; preds = %18
  %24 = load i32, i32* %4, align 4
  %25 = add nsw i32 %24, 1
  store i32 %25, i32* %4, align 4
  br label %14

26:                                               ; preds = %14
  %27 = load i32, i32* %2, align 4
  %28 = getelementptr inbounds [100 x double], [100 x double]* %5, i64 0, i64 0
  %29 = call double @s(i32 %27, double* %28)
  store double %29, double* %6, align 8
  %30 = load double, double* %6, align 8
  %31 = call i32 (i8*, ...) @printf(i8* getelementptr inbounds ([7 x i8], [7 x i8]* @.str.2, i64 0, i64 0), double %30)
  br label %32

32:                                               ; preds = %26
  %33 = load i32, i32* %3, align 4
  %34 = add nsw i32 %33, 1
  store i32 %34, i32* %3, align 4
  br label %8

35:                                               ; preds = %8
  ret void
}

declare dso_local i32 @__isoc99_scanf(i8*, ...) #2

declare dso_local i32 @printf(i8*, ...) #2


!llvm.module.flags = !{!0}
!llvm.ident = !{!1}

!0 = !{i32 1, !"wchar_size", i32 4}
!1 = !{!"clang version 10.0.0-4ubuntu1 "}
